; Function Attrs: mustprogress nofree nounwind willreturn memory(write, argmem: readwrite) uwtable
define dso_local noundef zeroext i1 @_ZN30btGeneric6DofSpring2Constraint16matrixToEulerZYXERK11btMatrix3x3R9btVector3(ptr nocapture noundef nonnull readonly align 4 dereferenceable(48) %mat, ptr nocapture noundef nonnull writeonly align 4 dereferenceable(16) %xyz) local_unnamed_addr #6 align 2 {
entry:
  %arrayidx.i = getelementptr inbounds i8, ptr %mat, i64 8
  %0 = load float, ptr %arrayidx.i, align 4
  %cmp = fcmp olt float %0, 1.000000e+00
  br i1 %cmp, label %if.then, label %if.else26

if.then:                                          ; preds = %entry
  %cmp1 = fcmp ogt float %0, -1.000000e+00
  br i1 %cmp1, label %if.then2, label %if.else

if.then2:                                         ; preds = %if.then
  %arrayidx.i19 = getelementptr inbounds i8, ptr %mat, i64 24
  %1 = load float, ptr %arrayidx.i19, align 4
  %arrayidx.i21 = getelementptr inbounds i8, ptr %mat, i64 40
  %2 = load float, ptr %arrayidx.i21, align 4
  %call.i = tail call noundef float @atan2f(float noundef %1, float noundef %2) #22
  store float %call.i, ptr %xyz, align 4
  %3 = load float, ptr %arrayidx.i, align 4
  %fneg = fneg float %3
  %cmp.i = fcmp olt float %fneg, -1.000000e+00
  %x.addr.0.i = select i1 %cmp.i, float -1.000000e+00, float %fneg
  %cmp1.i = fcmp ogt float %x.addr.0.i, 1.000000e+00
  %x.addr.1.i = select i1 %cmp1.i, float 1.000000e+00, float %x.addr.0.i
  %call.i23 = tail call noundef float @asinf(float noundef %x.addr.1.i) #22
  %arrayidx10 = getelementptr inbounds i8, ptr %xyz, i64 4
  store float %call.i23, ptr %arrayidx10, align 4
  %arrayidx.i24 = getelementptr inbounds i8, ptr %mat, i64 4
  %4 = load float, ptr %arrayidx.i24, align 4
  %5 = load float, ptr %mat, align 4
  %call.i25 = tail call noundef float @atan2f(float noundef %4, float noundef %5) #22
  br label %return

if.else:                                          ; preds = %if.then
  store <2 x float> <float 0.000000e+00, float 0x3FF921FB60000000>, ptr %xyz, align 4
  %arrayidx.i.i26 = getelementptr inbounds i8, ptr %mat, i64 16
  %6 = load float, ptr %arrayidx.i.i26, align 4
  %arrayidx.i.i27 = getelementptr inbounds i8, ptr %mat, i64 32
  %7 = load float, ptr %arrayidx.i.i27, align 4
  %call.i28 = tail call noundef float @atan2f(float noundef %6, float noundef %7) #22
  %fneg23 = fneg float %call.i28
  br label %return

if.else26:                                        ; preds = %entry
  store <2 x float> <float 0.000000e+00, float 0xBFF921FB60000000>, ptr %xyz, align 4
  %arrayidx.i.i29 = getelementptr inbounds i8, ptr %mat, i64 16
  %8 = load float, ptr %arrayidx.i.i29, align 4
  %fneg32 = fneg float %8
  %arrayidx.i.i30 = getelementptr inbounds i8, ptr %mat, i64 32
  %9 = load float, ptr %arrayidx.i.i30, align 4
  %fneg34 = fneg float %9
  %call.i31 = tail call noundef float @atan2f(float noundef %fneg32, float noundef %fneg34) #22
  br label %return

return:                                           ; preds = %if.else26, %if.else, %if.then2
  %call.i31.sink = phi float [ %call.i31, %if.else26 ], [ %fneg23, %if.else ], [ %call.i25, %if.then2 ]
  %retval.0 = phi i1 [ false, %if.else26 ], [ false, %if.else ], [ true, %if.then2 ]
  %arrayidx37 = getelementptr inbounds i8, ptr %xyz, i64 8
  store float %call.i31.sink, ptr %arrayidx37, align 4
  ret i1 %retval.0
}